; Function Attrs: mustprogress uwtable
define noundef zeroext i1 @_ZNK18OpenImageIO_v2_6_010ImageInput9has_errorEv(ptr nocapture noundef nonnull readonly align 8 dereferenceable(184) %this) local_unnamed_addr #5 align 2 {
entry:
  %add.ptr.i.i.i.i.i.i = getelementptr inbounds i8, ptr %this, i64 176
  %0 = load ptr, ptr %add.ptr.i.i.i.i.i.i, align 8
  %m_errormessage = getelementptr inbounds i8, ptr %0, i64 40
  %call.i = tail call noundef ptr @_ZN5boost6detail12get_tss_dataEPKv(ptr noundef nonnull %m_errormessage)
  %tobool.not = icmp eq ptr %call.i, null
  br i1 %tobool.not, label %land.end, label %land.rhs

land.rhs:                                         ; preds = %entry
  %call3 = tail call noundef i64 @_ZNKSt7__cxx1112basic_stringIcSt11char_traitsIcESaIcEE4sizeEv(ptr noundef nonnull align 8 dereferenceable(32) %call.i) #26
  %tobool4 = icmp ne i64 %call3, 0
  br label %land.end

land.end:                                         ; preds = %land.rhs, %entry
  %1 = phi i1 [ false, %entry ], [ %tobool4, %land.rhs ]
  ret i1 %1
}